target datalayout = "e-m:e-p270:32:32-p271:32:32-p272:64:64-i64:64-i128:128-f80:128-n8:16:32:64-S128"
target triple = "x86_64-unknown-linux-gnu"

@_ZN12_GLOBAL__N_113gMaxInpcValueE = internal global i32 0, align 4
@_ZN12_GLOBAL__N_113gMaxInscValueE = internal global i32 0, align 4
@_ZN12_GLOBAL__N_111gMaxVoValueE = internal global i32 0, align 4

; Function Attrs: mustprogress uwtable
define internal noundef signext i8 @_ZN12_GLOBAL__N_118ulayout_ensureDataEv() #0 {
entry:
  %errorCode = alloca i32, align 4
  store i32 0, ptr %errorCode, align 4
  %call = call noundef signext i8 @_ZN12_GLOBAL__N_118ulayout_ensureDataER10UErrorCode(ptr noundef nonnull align 4 dereferenceable(4) %errorCode)
  ret i8 %call
}

; Function Attrs: mustprogress uwtable
define internal noundef i32 @_ZL17layoutGetMaxValueRK11IntProperty9UProperty(ptr noundef nonnull align 8 dereferenceable(32) %0, i32 noundef %which) #0 {
entry:
  %retval = alloca i32, align 4
  %.addr = alloca ptr, align 8
  %which.addr = alloca i32, align 4
  store ptr %0, ptr %.addr, align 8
  store i32 %which, ptr %which.addr, align 4
  %call = call noundef signext i8 @_ZN12_GLOBAL__N_118ulayout_ensureDataEv()
  %tobool = icmp ne i8 %call, 0
  br i1 %tobool, label %if.end, label %if.then

if.then:                                          ; preds = %entry
  store i32 0, ptr %retval, align 4
  br label %return

if.end:                                           ; preds = %entry
  %1 = load i32, ptr %which.addr, align 4
  switch i32 %1, label %sw.default [
    i32 4118, label %sw.bb
    i32 4119, label %sw.bb1
    i32 4120, label %sw.bb2
  ]

sw.bb:                                            ; preds = %if.end
  %2 = load i32, ptr @_ZN12_GLOBAL__N_113gMaxInpcValueE, align 4
  store i32 %2, ptr %retval, align 4
  br label %return

sw.bb1:                                           ; preds = %if.end
  %3 = load i32, ptr @_ZN12_GLOBAL__N_113gMaxInscValueE, align 4
  store i32 %3, ptr %retval, align 4
  br label %return

sw.bb2:                                           ; preds = %if.end
  %4 = load i32, ptr @_ZN12_GLOBAL__N_111gMaxVoValueE, align 4
  store i32 %4, ptr %retval, align 4
  br label %return

sw.default:                                       ; preds = %if.end
  store i32 0, ptr %retval, align 4
  br label %return

return:                                           ; preds = %sw.default, %sw.bb2, %sw.bb1, %sw.bb, %if.then
  %5 = load i32, ptr %retval, align 4
  ret i32 %5
}