; Function Attrs: mustprogress uwtable
define internal noundef i32 @_ZL17layoutGetMaxValueRK11IntProperty9UProperty(ptr nocapture nonnull readnone align 8 %0, i32 noundef %which) #0 {
entry:
  %errorCode.i = alloca i32, align 4
  call void @llvm.lifetime.start.p0(i64 4, ptr nonnull %errorCode.i)
  store i32 0, ptr %errorCode.i, align 4
  %call.i = call fastcc noundef signext i8 @_ZN12_GLOBAL__N_118ulayout_ensureDataER10UErrorCode(ptr noundef nonnull align 4 dereferenceable(4) %errorCode.i), !range !4
  call void @llvm.lifetime.end.p0(i64 4, ptr nonnull %errorCode.i)
  %tobool.not = icmp eq i8 %call.i, 0
  br i1 %tobool.not, label %return, label %if.end

if.end:                                           ; preds = %entry
  switch i32 %which, label %return [
    i32 4118, label %sw.bb
    i32 4119, label %sw.bb1
    i32 4120, label %sw.bb2
  ]

sw.bb:                                            ; preds = %if.end
  %1 = load i32, ptr @_ZN12_GLOBAL__N_113gMaxInpcValueE, align 4
  br label %return

sw.bb1:                                           ; preds = %if.end
  %2 = load i32, ptr @_ZN12_GLOBAL__N_113gMaxInscValueE, align 4
  br label %return

sw.bb2:                                           ; preds = %if.end
  %3 = load i32, ptr @_ZN12_GLOBAL__N_111gMaxVoValueE, align 4
  br label %return

return:                                           ; preds = %if.end, %entry, %sw.bb2, %sw.bb1, %sw.bb
  %retval.0 = phi i32 [ %3, %sw.bb2 ], [ %2, %sw.bb1 ], [ %1, %sw.bb ], [ 0, %entry ], [ 0, %if.end ]
  ret i32 %retval.0
}